; Function Attrs: nounwind uwtable
define dso_local void @FreeExprContext(ptr noundef %0, i1 noundef zeroext %1) local_unnamed_addr #0 {
  %3 = getelementptr inbounds nuw i8, ptr %0, i64 136
  %4 = load ptr, ptr %3, align 8
  %5 = icmp eq ptr %4, null
  br i1 %5, label %ShutdownExprContext.exit, label %.lr.ph.i

.lr.ph.i:                                         ; preds = %2
  %6 = getelementptr inbounds nuw i8, ptr %0, i64 40
  %7 = load ptr, ptr %6, align 8
  %8 = load ptr, ptr @CurrentMemoryContext, align 8
  store ptr %7, ptr @CurrentMemoryContext, align 8
  br i1 %1, label %.lr.ph.split.us.i, label %.lr.ph.split.i

.lr.ph.split.us.i:                                ; preds = %.lr.ph.i, %.lr.ph.split.us.i
  %9 = phi ptr [ %15, %.lr.ph.split.us.i ], [ %4, %.lr.ph.i ]
  %10 = load ptr, ptr %9, align 8
  store ptr %10, ptr %3, align 8
  %11 = getelementptr inbounds nuw i8, ptr %9, i64 8
  %12 = load ptr, ptr %11, align 8
  %13 = getelementptr inbounds nuw i8, ptr %9, i64 16
  %14 = load i64, ptr %13, align 8
  tail call void %12(i64 noundef %14) #12
  tail call void @pfree(ptr noundef nonnull %9) #12
  %15 = load ptr, ptr %3, align 8
  %.not.us.i = icmp eq ptr %15, null
  br i1 %.not.us.i, label %._crit_edge.i, label %.lr.ph.split.us.i, !llvm.loop !4

.lr.ph.split.i:                                   ; preds = %.lr.ph.i, %.lr.ph.split.i
  %16 = phi ptr [ %18, %.lr.ph.split.i ], [ %4, %.lr.ph.i ]
  %17 = load ptr, ptr %16, align 8
  store ptr %17, ptr %3, align 8
  tail call void @pfree(ptr noundef nonnull %16) #12
  %18 = load ptr, ptr %3, align 8
  %.not.i = icmp eq ptr %18, null
  br i1 %.not.i, label %._crit_edge.i, label %.lr.ph.split.i, !llvm.loop !4

._crit_edge.i:                                    ; preds = %.lr.ph.split.i, %.lr.ph.split.us.i
  store ptr %8, ptr @CurrentMemoryContext, align 8
  br label %ShutdownExprContext.exit

ShutdownExprContext.exit:                         ; preds = %2, %._crit_edge.i
  %19 = getelementptr inbounds nuw i8, ptr %0, i64 40
  %20 = load ptr, ptr %19, align 8
  tail call void @MemoryContextDelete(ptr noundef %20) #12
  %21 = getelementptr inbounds nuw i8, ptr %0, i64 128
  %22 = load ptr, ptr %21, align 8
  %.not = icmp eq ptr %22, null
  br i1 %.not, label %27, label %23

23:                                               ; preds = %ShutdownExprContext.exit
  %24 = getelementptr inbounds nuw i8, ptr %22, i64 240
  %25 = load ptr, ptr %24, align 8
  %26 = tail call ptr @list_delete_ptr(ptr noundef %25, ptr noundef nonnull %0) #12
  store ptr %26, ptr %24, align 8
  br label %27

27:                                               ; preds = %23, %ShutdownExprContext.exit
  tail call void @pfree(ptr noundef nonnull %0) #12
  ret void
}